; ModuleID = '38/966.c'
source_filename = "38/966.c"
target datalayout = "e-m:e-p270:32:32-p271:32:32-p272:64:64-i64:64-f80:128-n8:16:32:64-S128"
target triple = "x86_64-pc-linux-gnu"

@.str = private unnamed_addr constant [3 x i8] c"%d\00", align 1
@.str.1 = private unnamed_addr constant [2 x i8] c"0\00", align 1
@.str.2 = private unnamed_addr constant [4 x i8] c"%lf\00", align 1
@.str.3 = private unnamed_addr constant [6 x i8] c"%.5f\0A\00", align 1

; Function Attrs: noinline nounwind uwtable
define dso_local void @main() #0 {
  %1 = alloca [100 x double*], align 16
  %2 = alloca double, align 8
  %3 = alloca double, align 8
  %4 = alloca double, align 8
  %5 = alloca i32, align 4
  %6 = alloca i32, align 4
  %7 = alloca i32, align 4
  %8 = alloca i32, align 4
  %9 = call i32 (i8*, ...) @__isoc99_scanf(i8* getelementptr inbounds ([3 x i8], [3 x i8]* @.str, i64 0, i64 0), i32* %8)
  store i32 0, i32* %7, align 4
  br label %10

10:                                               ; preds = %91, %0
  %11 = load i32, i32* %7, align 4
  %12 = load i32, i32* %8, align 4
  %13 = icmp slt i32 %11, %12
  br i1 %13, label %14, label %92

14:                                               ; preds = %10
  %15 = call i32 (i8*, ...) @__isoc99_scanf(i8* getelementptr inbounds ([3 x i8], [3 x i8]* @.str, i64 0, i64 0), i32* %6)
  %16 = load i32, i32* %6, align 4
  %17 = icmp eq i32 %16, 0
  br i1 %17, label %18, label %20

18:                                               ; preds = %14
  %19 = call i32 (i8*, ...) @printf(i8* getelementptr inbounds ([2 x i8], [2 x i8]* @.str.1, i64 0, i64 0))
  br label %91

20:                                               ; preds = %14
  store i32 0, i32* %5, align 4
  br label %21

21:                                               ; preds = %37, %20
  %22 = load i32, i32* %5, align 4
  %23 = load i32, i32* %6, align 4
  %24 = sub nsw i32 %23, 1
  %25 = icmp sle i32 %22, %24
  br i1 %25, label %26, label %40

26:                                               ; preds = %21
  %27 = call noalias i8* @malloc(i64 8) #3
  %28 = bitcast i8* %27 to double*
  %29 = load i32, i32* %5, align 4
  %30 = sext i32 %29 to i64
  %31 = getelementptr inbounds [100 x double*], [100 x double*]* %1, i64 0, i64 %30
  store double* %28, double** %31, align 8
  %32 = load i32, i32* %5, align 4
  %33 = sext i32 %32 to i64
  %34 = getelementptr inbounds [100 x double*], [100 x double*]* %1, i64 0, i64 %33
  %35 = load double*, double** %34, align 8
  %36 = call i32 (i8*, ...) @__isoc99_scanf(i8* getelementptr inbounds ([4 x i8], [4 x i8]* @.str.2, i64 0, i64 0), double* %35)
  br label %37

37:                                               ; preds = %26
  %38 = load i32, i32* %5, align 4
  %39 = add nsw i32 %38, 1
  store i32 %39, i32* %5, align 4
  br label %21

40:                                               ; preds = %21
  store double 0.000000e+00, double* %3, align 8
  store i32 0, i32* %5, align 4
  br label %41

41:                                               ; preds = %54, %40
  %42 = load i32, i32* %5, align 4
  %43 = load i32, i32* %6, align 4
  %44 = sub nsw i32 %43, 1
  %45 = icmp sle i32 %42, %44
  br i1 %45, label %46, label %57

46:                                               ; preds = %41
  %47 = load double, double* %3, align 8
  %48 = load i32, i32* %5, align 4
  %49 = sext i32 %48 to i64
  %50 = getelementptr inbounds [100 x double*], [100 x double*]* %1, i64 0, i64 %49
  %51 = load double*, double** %50, align 8
  %52 = load double, double* %51, align 8
  %53 = fadd double %47, %52
  store double %53, double* %3, align 8
  br label %54

54:                                               ; preds = %46
  %55 = load i32, i32* %5, align 4
  %56 = add nsw i32 %55, 1
  store i32 %56, i32* %5, align 4
  br label %41

57:                                               ; preds = %41
  %58 = load double, double* %3, align 8
  %59 = load i32, i32* %6, align 4
  %60 = sitofp i32 %59 to double
  %61 = fdiv double %58, %60
  store double %61, double* %2, align 8
  store double 0.000000e+00, double* %3, align 8
  store i32 0, i32* %5, align 4
  br label %62

62:                                               ; preds = %78, %57
  %63 = load i32, i32* %5, align 4
  %64 = load i32, i32* %6, align 4
  %65 = sub nsw i32 %64, 1
  %66 = icmp sle i32 %63, %65
  br i1 %66, label %67, label %81

67:                                               ; preds = %62
  %68 = load double, double* %3, align 8
  %69 = load i32, i32* %5, align 4
  %70 = sext i32 %69 to i64
  %71 = getelementptr inbounds [100 x double*], [100 x double*]* %1, i64 0, i64 %70
  %72 = load double*, double** %71, align 8
  %73 = load double, double* %72, align 8
  %74 = load double, double* %2, align 8
  %75 = fsub double %73, %74
  %76 = call double @pow(double %75, double 2.000000e+00) #3
  %77 = fadd double %68, %76
  store double %77, double* %3, align 8
  br label %78

78:                                               ; preds = %67
  %79 = load i32, i32* %5, align 4
  %80 = add nsw i32 %79, 1
  store i32 %80, i32* %5, align 4
  br label %62

81:                                               ; preds = %62
  %82 = load double, double* %3, align 8
  %83 = load i32, i32* %6, align 4
  %84 = sitofp i32 %83 to double
  %85 = fdiv double %82, %84
  %86 = call double @sqrt(double %85) #3
  store double %86, double* %4, align 8
  %87 = load double, double* %4, align 8
  %88 = call i32 (i8*, ...) @printf(i8* getelementptr inbounds ([6 x i8], [6 x i8]* @.str.3, i64 0, i64 0), double %87)
  %89 = load i32, i32* %7, align 4
  %90 = add nsw i32 %89, 1
  store i32 %90, i32* %7, align 4
  br label %91

91:                                               ; preds = %81, %18
  br label %10

92:                                               ; preds = %10
  ret void
}

declare dso_local i32 @__isoc99_scanf(i8*, ...) #1

declare dso_local i32 @printf(i8*, ...) #1

; Function Attrs: nounwind
declare dso_local noalias i8* @malloc(i64) #2

; Function Attrs: nounwind
declare dso_local double @pow(double, double) #2

; Function Attrs: nounwind
declare dso_local double @sqrt(double) #2


!llvm.module.flags = !{!0}
!llvm.ident = !{!1}

!0 = !{i32 1, !"wchar_size", i32 4}
!1 = !{!"clang version 10.0.0-4ubuntu1 "}
